; ModuleID = '50/2144.c'
source_filename = "50/2144.c"
target datalayout = "e-m:e-p270:32:32-p271:32:32-p272:64:64-i64:64-f80:128-n8:16:32:64-S128"
target triple = "x86_64-pc-linux-gnu"

@.str = private unnamed_addr constant [3 x i8] c"%d\00", align 1
@.str.1 = private unnamed_addr constant [4 x i8] c"%d\0A\00", align 1

; Function Attrs: noinline nounwind uwtable
define dso_local i32 @main() #0 {
  %1 = alloca i32, align 4
  %2 = alloca i32, align 4
  %3 = alloca i32, align 4
  store i32 0, i32* %1, align 4
  %4 = call i32 (i8*, ...) @__isoc99_scanf(i8* getelementptr inbounds ([3 x i8], [3 x i8]* @.str, i64 0, i64 0), i32* %2)
  store i32 1, i32* %3, align 4
  br label %5

5:                                                ; preds = %17, %0
  %6 = load i32, i32* %3, align 4
  %7 = icmp sle i32 %6, 12
  br i1 %7, label %8, label %20

8:                                                ; preds = %5
  %9 = load i32, i32* %3, align 4
  %10 = load i32, i32* %2, align 4
  %11 = call i32 @day(i32 %9, i32 %10)
  %12 = icmp ne i32 %11, 0
  br i1 %12, label %13, label %16

13:                                               ; preds = %8
  %14 = load i32, i32* %3, align 4
  %15 = call i32 (i8*, ...) @printf(i8* getelementptr inbounds ([4 x i8], [4 x i8]* @.str.1, i64 0, i64 0), i32 %14)
  br label %16

16:                                               ; preds = %13, %8
  br label %17

17:                                               ; preds = %16
  %18 = load i32, i32* %3, align 4
  %19 = add nsw i32 %18, 1
  store i32 %19, i32* %3, align 4
  br label %5

20:                                               ; preds = %5
  %21 = load i32, i32* %1, align 4
  ret i32 %21
}

declare dso_local i32 @__isoc99_scanf(i8*, ...) #1

; Function Attrs: noinline nounwind uwtable
define dso_local i32 @day(i32 %0, i32 %1) #0 {
  %3 = alloca i32, align 4
  %4 = alloca i32, align 4
  %5 = alloca i32, align 4
  %6 = alloca i32, align 4
  %7 = alloca i32, align 4
  %8 = alloca i32, align 4
  store i32 %0, i32* %4, align 4
  store i32 %1, i32* %5, align 4
  store i32 0, i32* %8, align 4
  store i32 1, i32* %6, align 4
  br label %9

9:                                                ; preds = %38, %2
  %10 = load i32, i32* %6, align 4
  %11 = load i32, i32* %4, align 4
  %12 = sub nsw i32 %11, 1
  %13 = icmp sle i32 %10, %12
  br i1 %13, label %14, label %41

14:                                               ; preds = %9
  %15 = load i32, i32* %8, align 4
  %16 = add nsw i32 %15, 31
  store i32 %16, i32* %8, align 4
  %17 = load i32, i32* %6, align 4
  %18 = icmp eq i32 %17, 4
  br i1 %18, label %28, label %19

19:                                               ; preds = %14
  %20 = load i32, i32* %6, align 4
  %21 = icmp eq i32 %20, 6
  br i1 %21, label %28, label %22

22:                                               ; preds = %19
  %23 = load i32, i32* %6, align 4
  %24 = icmp eq i32 %23, 9
  br i1 %24, label %28, label %25

25:                                               ; preds = %22
  %26 = load i32, i32* %6, align 4
  %27 = icmp eq i32 %26, 11
  br i1 %27, label %28, label %31

28:                                               ; preds = %25, %22, %19, %14
  %29 = load i32, i32* %8, align 4
  %30 = add nsw i32 %29, -1
  store i32 %30, i32* %8, align 4
  br label %31

31:                                               ; preds = %28, %25
  %32 = load i32, i32* %6, align 4
  %33 = icmp eq i32 %32, 2
  br i1 %33, label %34, label %37

34:                                               ; preds = %31
  %35 = load i32, i32* %8, align 4
  %36 = sub nsw i32 %35, 3
  store i32 %36, i32* %8, align 4
  br label %37

37:                                               ; preds = %34, %31
  br label %38

38:                                               ; preds = %37
  %39 = load i32, i32* %6, align 4
  %40 = add nsw i32 %39, 1
  store i32 %40, i32* %6, align 4
  br label %9

41:                                               ; preds = %9
  %42 = load i32, i32* %8, align 4
  %43 = add nsw i32 %42, 12
  store i32 %43, i32* %8, align 4
  %44 = load i32, i32* %8, align 4
  %45 = load i32, i32* %5, align 4
  %46 = add nsw i32 %44, %45
  %47 = srem i32 %46, 7
  store i32 %47, i32* %7, align 4
  %48 = load i32, i32* %7, align 4
  %49 = icmp eq i32 %48, 5
  br i1 %49, label %50, label %51

50:                                               ; preds = %41
  store i32 1, i32* %3, align 4
  br label %52

51:                                               ; preds = %41
  store i32 0, i32* %3, align 4
  br label %52

52:                                               ; preds = %51, %50
  %53 = load i32, i32* %3, align 4
  ret i32 %53
}

declare dso_local i32 @printf(i8*, ...) #1


!llvm.module.flags = !{!0}
!llvm.ident = !{!1}

!0 = !{i32 1, !"wchar_size", i32 4}
!1 = !{!"clang version 10.0.0-4ubuntu1 "}
